target datalayout = "e-m:e-p270:32:32-p271:32:32-p272:64:64-i64:64-i128:128-f80:128-n8:16:32:64-S128"
target triple = "x86_64-pc-linux-gnu"

%struct._t38_packet_info = type { i16, i32, i32, i32, i32, i32, i8, [128 x i8], [128 x i8], double, i32 }

@ett_t38_Type_of_msg = internal global i32 0, align 4
@primary_part = internal global i8 1, align 1
@t38_info = internal global ptr null, align 8
@Type_of_msg_value = internal global i32 0, align 4

; Function Attrs: null_pointer_is_valid sspstrong uwtable
define internal i32 @dissect_t38_Type_of_msg(ptr noundef %0, i32 noundef %1, ptr noundef %2, ptr noundef %3, i32 noundef %4) #0 {
  %6 = alloca ptr, align 8
  %7 = alloca i32, align 4
  %8 = alloca ptr, align 8
  %9 = alloca ptr, align 8
  %10 = alloca i32, align 4
  store ptr %0, ptr %6, align 8
  store i32 %1, ptr %7, align 4
  store ptr %2, ptr %8, align 8
  store ptr %3, ptr %9, align 8
  store i32 %4, ptr %10, align 4
  %11 = load ptr, ptr %6, align 8
  %12 = load i32, ptr %7, align 4
  %13 = load ptr, ptr %8, align 8
  %14 = load ptr, ptr %9, align 8
  %15 = load i32, ptr %10, align 4
  %16 = load i32, ptr @ett_t38_Type_of_msg, align 4
  %17 = call i32 @dissect_per_choice(ptr noundef %11, i32 noundef %12, ptr noundef %13, ptr noundef %14, i32 noundef %15, i32 noundef %16, ptr noundef @Type_of_msg_choice, ptr noundef @Type_of_msg_value)
  store i32 %17, ptr %7, align 4
  %18 = load i8, ptr @primary_part, align 1, !range !6, !noundef !7
  %19 = trunc i8 %18 to i1
  br i1 %19, label %20, label %24

20:                                               ; preds = %5
  %21 = load i32, ptr @Type_of_msg_value, align 4
  %22 = load ptr, ptr @t38_info, align 8
  %23 = getelementptr inbounds nuw %struct._t38_packet_info, ptr %22, i32 0, i32 1
  store i32 %21, ptr %23, align 4
  br label %24

24:                                               ; preds = %20, %5
  %25 = load i32, ptr %7, align 4
  ret i32 %25
}