; Function Attrs: null_pointer_is_valid sspstrong uwtable
define internal i32 @dissect_t38_Type_of_msg(ptr noundef %0, i32 noundef %1, ptr noundef %2, ptr noundef %3, i32 noundef %4) #0 {
  %6 = load i32, ptr @ett_t38_Type_of_msg, align 4
  %7 = tail call i32 @dissect_per_choice(ptr noundef %0, i32 noundef %1, ptr noundef %2, ptr noundef %3, i32 noundef %4, i32 noundef %6, ptr noundef nonnull @Type_of_msg_choice, ptr noundef nonnull @Type_of_msg_value)
  %.b = load i1, ptr @primary_part, align 1
  br i1 %.b, label %12, label %8

8:                                                ; preds = %5
  %9 = load i32, ptr @Type_of_msg_value, align 4
  %10 = load ptr, ptr @t38_info, align 8
  %11 = getelementptr inbounds nuw i8, ptr %10, i64 4
  store i32 %9, ptr %11, align 4
  br label %12

12:                                               ; preds = %8, %5
  ret i32 %7
}